	.file	"play.cpp"
	.text
	.align 2
	.p2align 4
	.globl	_ZN10scene_playC2EPN3wze6engineEP4game
	.type	_ZN10scene_playC2EPN3wze6engineEP4game, @function
_ZN10scene_playC2EPN3wze6engineEP4game:
.LFB8157:
	.cfi_startproc
	movq	%rsi, (%rdi)
	movq	%rdx, 8(%rdi)
	ret
	.cfi_endproc
.LFE8157:
	.size	_ZN10scene_playC2EPN3wze6engineEP4game, .-_ZN10scene_playC2EPN3wze6engineEP4game
	.globl	_ZN10scene_playC1EPN3wze6engineEP4game
	.set	_ZN10scene_playC1EPN3wze6engineEP4game,_ZN10scene_playC2EPN3wze6engineEP4game
	.align 2
	.p2align 4
	.globl	_ZN10scene_playD2Ev
	.type	_ZN10scene_playD2Ev, @function
_ZN10scene_playD2Ev:
.LFB8160:
	.cfi_startproc
	ret
	.cfi_endproc
.LFE8160:
	.size	_ZN10scene_playD2Ev, .-_ZN10scene_playD2Ev
	.globl	_ZN10scene_playD1Ev
	.set	_ZN10scene_playD1Ev,_ZN10scene_playD2Ev
	.align 2
	.p2align 4
	.globl	_ZN10scene_play6UpdateEv
	.type	_ZN10scene_play6UpdateEv, @function
_ZN10scene_play6UpdateEv:
.LFB8162:
	.cfi_startproc
	movl	$2, %eax
	ret
	.cfi_endproc
.LFE8162:
	.size	_ZN10scene_play6UpdateEv, .-_ZN10scene_play6UpdateEv
	.ident	"GCC: (GNU) 13.2.1 20230801"
	.section	.note.GNU-stack,"",@progbits
